target datalayout = "e-m:e-p270:32:32-p271:32:32-p272:64:64-i64:64-i128:128-f80:128-n8:16:32:64-S128"
target triple = "x86_64-unknown-linux-gnu"

%struct.MemoryRegion = type { %struct.Object, i8, i8, i8, i8, i8, i8, i8, i8, i8, i8, ptr, ptr, ptr, ptr, ptr, ptr, i32, i128, i64, ptr, i64, i8, i8, i8, i8, i8, ptr, i64, i32, %union.anon, %union.anon.0, %union.anon.1, ptr, i32, ptr, ptr, i8 }
%struct.Object = type { ptr, ptr, ptr, i32, ptr }
%union.anon = type { %struct.QTailQLink }
%struct.QTailQLink = type { ptr, ptr }
%union.anon.0 = type { %struct.QTailQLink }
%union.anon.1 = type { %struct.QTailQLink }
%struct.VFIOPCIDevice = type { %struct.PCIDevice, %struct.VFIODevice, %struct.VFIOINTx, i32, ptr, i64, i32, i64, ptr, i32, ptr, ptr, i32, i32, [6 x %struct.VFIOBAR], ptr, ptr, %struct.PCIHostDeviceAddress, %struct.QemuUUID, %struct.EventNotifier, %struct.EventNotifier, ptr, i32, i32, i32, i32, i32, i32, i32, i32, i32, i32, i32, i8, i8, i8, i8, i8, i8, i8, i8, i8, i8, i8, i8, i8, i8, i32, i8, i8, ptr, %struct.Notifier }
%struct.PCIDevice = type { %struct.DeviceState, i8, i8, ptr, ptr, ptr, ptr, ptr, i32, %struct.PCIReqIDCache, [64 x i8], [7 x %struct.PCIIORegion], %struct.AddressSpace, %struct.MemoryRegion, %struct.MemoryRegion, ptr, ptr, [3 x ptr], i8, i8, i32, i8, i32, ptr, ptr, ptr, ptr, ptr, ptr, %struct.MemoryRegion, %struct.MemoryRegion, %struct.MemoryRegion, ptr, i8, i32, i8, %struct.PCIExpressDevice, ptr, ptr, i32, i8, %struct.MemoryRegion, i32, ptr, ptr, ptr, ptr, ptr, i32 }
%struct.DeviceState = type { %struct.Object, ptr, ptr, i8, i8, i64, ptr, i32, i8, ptr, %struct.NamedGPIOListHead, %struct.NamedClockListHead, %struct.BusStateHead, i32, i32, i32, %struct.ResettableState, ptr, %struct.MemReentrancyGuard }
%struct.NamedGPIOListHead = type { ptr }
%struct.NamedClockListHead = type { ptr }
%struct.BusStateHead = type { ptr }
%struct.ResettableState = type { i32, i8, i8 }
%struct.MemReentrancyGuard = type { i8 }
%struct.PCIReqIDCache = type { ptr, i32 }
%struct.PCIIORegion = type { i64, i64, i8, ptr, ptr }
%struct.AddressSpace = type { %struct.rcu_head, ptr, ptr, ptr, i32, i32, ptr, %union.anon.4, %union.anon.5 }
%struct.rcu_head = type { ptr, ptr }
%union.anon.4 = type { %struct.QTailQLink }
%union.anon.5 = type { %struct.QTailQLink }
%struct.PCIExpressDevice = type { i8, i8, i8, i16, %struct.PCIEAERLog, i16, i16, i16, %struct.PCIESriovPF, %struct.PCIESriovVF }
%struct.PCIEAERLog = type { i16, i16, ptr }
%struct.PCIESriovPF = type { i16, [7 x i8], ptr, ptr }
%struct.PCIESriovVF = type { ptr, i16 }
%struct.VFIODevice = type { %struct.anon.6, %struct.anon.7, %struct.anon.8, ptr, ptr, ptr, ptr, ptr, i32, i32, i8, i8, i8, i8, i32, ptr, i32, i32, i32, ptr, ptr, i32, i8, i8 }
%struct.anon.6 = type { ptr, ptr }
%struct.anon.7 = type { ptr, ptr }
%struct.anon.8 = type { ptr, ptr }
%struct.VFIOINTx = type { i8, i8, i8, %struct.EventNotifier, %struct.EventNotifier, %struct.PCIINTxRoute, i32, ptr }
%struct.PCIINTxRoute = type { i32, i32 }
%struct.VFIOBAR = type { %struct.VFIORegion, ptr, i64, i8, i8, i8, %struct.anon.9 }
%struct.VFIORegion = type { ptr, i64, ptr, i64, i32, i32, ptr, i8 }
%struct.anon.9 = type { ptr }
%struct.PCIHostDeviceAddress = type { i32, i32, i32, i32 }
%struct.QemuUUID = type { %union.anon.10 }
%union.anon.10 = type { %struct.anon.11 }
%struct.anon.11 = type { i32, i16, i16, i8, i8, [6 x i8] }
%struct.EventNotifier = type { i32, i32, i8 }
%struct.Notifier = type { ptr, %struct.anon.12 }
%struct.anon.12 = type { ptr, ptr }
%struct.VFIOMSIVector = type { %struct.EventNotifier, %struct.EventNotifier, ptr, i32, i8 }

@kvm_state = external global ptr, align 8

; Function Attrs: nounwind sspstrong uwtable
define internal void @vfio_remove_kvm_msi_virq(ptr noundef %vector) #0 {
entry:
  %vector.addr = alloca ptr, align 8
  store ptr %vector, ptr %vector.addr, align 8
  %0 = load ptr, ptr @kvm_state, align 8
  %1 = load ptr, ptr %vector.addr, align 8
  %kvm_interrupt = getelementptr inbounds %struct.VFIOMSIVector, ptr %1, i32 0, i32 1
  %2 = load ptr, ptr %vector.addr, align 8
  %virq = getelementptr inbounds %struct.VFIOMSIVector, ptr %2, i32 0, i32 3
  %3 = load i32, ptr %virq, align 8
  %call = call i32 @kvm_irqchip_remove_irqfd_notifier_gsi(ptr noundef %0, ptr noundef %kvm_interrupt, i32 noundef %3)
  %4 = load ptr, ptr @kvm_state, align 8
  %5 = load ptr, ptr %vector.addr, align 8
  %virq1 = getelementptr inbounds %struct.VFIOMSIVector, ptr %5, i32 0, i32 3
  %6 = load i32, ptr %virq1, align 8
  call void @kvm_irqchip_release_virq(ptr noundef %4, i32 noundef %6)
  %7 = load ptr, ptr %vector.addr, align 8
  %virq2 = getelementptr inbounds %struct.VFIOMSIVector, ptr %7, i32 0, i32 3
  store i32 -1, ptr %virq2, align 8
  %8 = load ptr, ptr %vector.addr, align 8
  %kvm_interrupt3 = getelementptr inbounds %struct.VFIOMSIVector, ptr %8, i32 0, i32 1
  call void @event_notifier_cleanup(ptr noundef %kvm_interrupt3)
  ret void
}

; Function Attrs: nounwind sspstrong uwtable
define internal void @vfio_msi_disable_common(ptr noundef %vdev) #0 {
entry:
  %vdev.addr = alloca ptr, align 8
  %i = alloca i32, align 4
  %vector = alloca ptr, align 8
  store ptr %vdev, ptr %vdev.addr, align 8
  store i32 0, ptr %i, align 4
  br label %for.cond

for.cond:                                         ; preds = %for.inc, %entry
  %0 = load i32, ptr %i, align 4
  %1 = load ptr, ptr %vdev.addr, align 8
  %nr_vectors = getelementptr inbounds %struct.VFIOPCIDevice, ptr %1, i32 0, i32 12
  %2 = load i32, ptr %nr_vectors, align 16
  %cmp = icmp slt i32 %0, %2
  br i1 %cmp, label %for.body, label %for.end

for.body:                                         ; preds = %for.cond
  %3 = load ptr, ptr %vdev.addr, align 8
  %msi_vectors = getelementptr inbounds %struct.VFIOPCIDevice, ptr %3, i32 0, i32 10
  %4 = load ptr, ptr %msi_vectors, align 16
  %5 = load i32, ptr %i, align 4
  %idxprom = sext i32 %5 to i64
  %arrayidx = getelementptr %struct.VFIOMSIVector, ptr %4, i64 %idxprom
  store ptr %arrayidx, ptr %vector, align 8
  %6 = load ptr, ptr %vdev.addr, align 8
  %msi_vectors1 = getelementptr inbounds %struct.VFIOPCIDevice, ptr %6, i32 0, i32 10
  %7 = load ptr, ptr %msi_vectors1, align 16
  %8 = load i32, ptr %i, align 4
  %idxprom2 = sext i32 %8 to i64
  %arrayidx3 = getelementptr %struct.VFIOMSIVector, ptr %7, i64 %idxprom2
  %use = getelementptr inbounds %struct.VFIOMSIVector, ptr %arrayidx3, i32 0, i32 4
  %9 = load i8, ptr %use, align 4
  %tobool = trunc i8 %9 to i1
  br i1 %tobool, label %if.then, label %if.end7

if.then:                                          ; preds = %for.body
  %10 = load ptr, ptr %vector, align 8
  %virq = getelementptr inbounds %struct.VFIOMSIVector, ptr %10, i32 0, i32 3
  %11 = load i32, ptr %virq, align 8
  %cmp4 = icmp sge i32 %11, 0
  br i1 %cmp4, label %if.then5, label %if.end

if.then5:                                         ; preds = %if.then
  %12 = load ptr, ptr %vector, align 8
  call void @vfio_remove_kvm_msi_virq(ptr noundef %12)
  br label %if.end

if.end:                                           ; preds = %if.then5, %if.then
  %13 = load ptr, ptr %vector, align 8
  %interrupt = getelementptr inbounds %struct.VFIOMSIVector, ptr %13, i32 0, i32 0
  %call = call i32 @event_notifier_get_fd(ptr noundef %interrupt)
  call void @qemu_set_fd_handler(i32 noundef %call, ptr noundef null, ptr noundef null, ptr noundef null)
  %14 = load ptr, ptr %vector, align 8
  %interrupt6 = getelementptr inbounds %struct.VFIOMSIVector, ptr %14, i32 0, i32 0
  call void @event_notifier_cleanup(ptr noundef %interrupt6)
  br label %if.end7

if.end7:                                          ; preds = %if.end, %for.body
  br label %for.inc

for.inc:                                          ; preds = %if.end7
  %15 = load i32, ptr %i, align 4
  %inc = add i32 %15, 1
  store i32 %inc, ptr %i, align 4
  br label %for.cond, !llvm.loop !13

for.end:                                          ; preds = %for.cond
  %16 = load ptr, ptr %vdev.addr, align 8
  %msi_vectors8 = getelementptr inbounds %struct.VFIOPCIDevice, ptr %16, i32 0, i32 10
  %17 = load ptr, ptr %msi_vectors8, align 16
  call void @g_free(ptr noundef %17)
  %18 = load ptr, ptr %vdev.addr, align 8
  %msi_vectors9 = getelementptr inbounds %struct.VFIOPCIDevice, ptr %18, i32 0, i32 10
  store ptr null, ptr %msi_vectors9, align 16
  %19 = load ptr, ptr %vdev.addr, align 8
  %nr_vectors10 = getelementptr inbounds %struct.VFIOPCIDevice, ptr %19, i32 0, i32 12
  store i32 0, ptr %nr_vectors10, align 16
  %20 = load ptr, ptr %vdev.addr, align 8
  %interrupt11 = getelementptr inbounds %struct.VFIOPCIDevice, ptr %20, i32 0, i32 13
  store i32 0, ptr %interrupt11, align 4
  ret void
}