; Function Attrs: nounwind sspstrong uwtable
define internal fastcc void @vfio_msi_disable_common(ptr noundef captures(none) %vdev) unnamed_addr #0 {
entry:
  %nr_vectors = getelementptr inbounds nuw i8, ptr %vdev, i64 2880
  %0 = load i32, ptr %nr_vectors, align 16
  %cmp13 = icmp sgt i32 %0, 0
  br i1 %cmp13, label %for.body.lr.ph, label %for.end

for.body.lr.ph:                                   ; preds = %entry
  %msi_vectors = getelementptr inbounds nuw i8, ptr %vdev, i64 2864
  br label %for.body

for.body:                                         ; preds = %for.body.lr.ph, %for.inc
  %1 = phi i32 [ %0, %for.body.lr.ph ], [ %8, %for.inc ]
  %indvars.iv = phi i64 [ 0, %for.body.lr.ph ], [ %indvars.iv.next, %for.inc ]
  %2 = load ptr, ptr %msi_vectors, align 16
  %arrayidx = getelementptr %struct.VFIOMSIVector, ptr %2, i64 %indvars.iv
  %use = getelementptr inbounds nuw i8, ptr %arrayidx, i64 36
  %3 = load i8, ptr %use, align 4
  %tobool = trunc i8 %3 to i1
  br i1 %tobool, label %if.then, label %for.inc

if.then:                                          ; preds = %for.body
  %virq = getelementptr inbounds nuw i8, ptr %arrayidx, i64 32
  %4 = load i32, ptr %virq, align 8
  %cmp4 = icmp sgt i32 %4, -1
  br i1 %cmp4, label %if.then5, label %if.end

if.then5:                                         ; preds = %if.then
  %5 = load ptr, ptr @kvm_state, align 8
  %kvm_interrupt.i = getelementptr inbounds nuw i8, ptr %arrayidx, i64 12
  %call.i = tail call i32 @kvm_irqchip_remove_irqfd_notifier_gsi(ptr noundef %5, ptr noundef nonnull %kvm_interrupt.i, i32 noundef %4) #23
  %6 = load ptr, ptr @kvm_state, align 8
  %7 = load i32, ptr %virq, align 8
  tail call void @kvm_irqchip_release_virq(ptr noundef %6, i32 noundef %7) #23
  store i32 -1, ptr %virq, align 8
  tail call void @event_notifier_cleanup(ptr noundef nonnull %kvm_interrupt.i) #23
  br label %if.end

if.end:                                           ; preds = %if.then5, %if.then
  %call = tail call i32 @event_notifier_get_fd(ptr noundef %arrayidx) #23
  tail call void @qemu_set_fd_handler(i32 noundef %call, ptr noundef null, ptr noundef null, ptr noundef null) #23
  tail call void @event_notifier_cleanup(ptr noundef %arrayidx) #23
  %.pre = load i32, ptr %nr_vectors, align 16
  br label %for.inc

for.inc:                                          ; preds = %for.body, %if.end
  %8 = phi i32 [ %1, %for.body ], [ %.pre, %if.end ]
  %indvars.iv.next = add nuw nsw i64 %indvars.iv, 1
  %9 = sext i32 %8 to i64
  %cmp = icmp slt i64 %indvars.iv.next, %9
  br i1 %cmp, label %for.body, label %for.end, !llvm.loop !15

for.end:                                          ; preds = %for.inc, %entry
  %msi_vectors8 = getelementptr inbounds nuw i8, ptr %vdev, i64 2864
  %10 = load ptr, ptr %msi_vectors8, align 16
  tail call void @g_free(ptr noundef %10) #23
  store ptr null, ptr %msi_vectors8, align 16
  store i32 0, ptr %nr_vectors, align 16
  %interrupt11 = getelementptr inbounds nuw i8, ptr %vdev, i64 2884
  store i32 0, ptr %interrupt11, align 4
  ret void
}